#include <math.h>
#include <stdio.h>
#include <stdlib.h>
#include <string.h>

main()
{
  int a[100][100];
  int b[100][100];
  int x1,y1,x2,y2;
  int i,j,k;

  scanf("%d %d",&x1,&y1);
  for(i=0;i<x1;i++)
  for(j=0;j<y1;j++)
   {
     scanf("%d",&a[i][j]);
    }
  scanf("%d %d",&x2,&y2);

  for(i=0;i<x2;i++)
  for(j=0;j<y2;j++)
   {
    scanf("%d",&b[i][j]);
   }
  int c[x1][y2];
  for(i=0;i<x1;i++)
  for(j=0;j<y2;j++)
  c[i][j]=0;



  for(i=0;i<x1;i++)
  for(j=0;j<y2;j++)
  for(k=0;k<x2;k++)
   c[i][j]+=a[i][k]*b[k][j] ;

  k=0;
  for(i=0;i<x1;i++)
  for(j=0;j<y2;j++)
  {
      printf("%d",c[i][j]);
   k++;
   if(k%y2!=0)
    printf(" ");
   if(k%y2==0)
    printf("\n");
}
getchar();
getchar();
getchar();
getchar();
getchar();
getchar();
getchar();
}
