target datalayout = "e-m:e-p270:32:32-p271:32:32-p272:64:64-i64:64-f80:128-n8:16:32:64-S128"
target triple = "x86_64-pc-linux-gnu"

@.str = private unnamed_addr constant [6 x i8] c"%d %d\00", align 1
@.str.1 = private unnamed_addr constant [3 x i8] c"%d\00", align 1
@.str.2 = private unnamed_addr constant [2 x i8] c" \00", align 1
@.str.3 = private unnamed_addr constant [2 x i8] c"\0A\00", align 1

; Function Attrs: noinline nounwind uwtable
define dso_local i32 @main() #0 {
  %1 = alloca i32, align 4
  %2 = alloca [100 x [100 x i32]], align 16
  %3 = alloca [100 x [100 x i32]], align 16
  %4 = alloca i32, align 4
  %5 = alloca i32, align 4
  %6 = alloca i32, align 4
  %7 = alloca i32, align 4
  %8 = alloca i32, align 4
  %9 = alloca i32, align 4
  %10 = alloca i32, align 4
  %11 = alloca i8*, align 8
  %12 = alloca i64, align 8
  %13 = alloca i64, align 8
  store i32 0, i32* %1, align 4
  %14 = call i32 (i8*, ...) @__isoc99_scanf(i8* getelementptr inbounds ([6 x i8], [6 x i8]* @.str, i64 0, i64 0), i32* %4, i32* %5)
  store i32 0, i32* %8, align 4
  br label %15

15:                                               ; preds = %36, %0
  %16 = load i32, i32* %8, align 4
  %17 = load i32, i32* %4, align 4
  %18 = icmp slt i32 %16, %17
  br i1 %18, label %19, label %39

19:                                               ; preds = %15
  store i32 0, i32* %9, align 4
  br label %20

20:                                               ; preds = %32, %19
  %21 = load i32, i32* %9, align 4
  %22 = load i32, i32* %5, align 4
  %23 = icmp slt i32 %21, %22
  br i1 %23, label %24, label %35

24:                                               ; preds = %20
  %25 = load i32, i32* %8, align 4
  %26 = sext i32 %25 to i64
  %27 = getelementptr inbounds [100 x [100 x i32]], [100 x [100 x i32]]* %2, i64 0, i64 %26
  %28 = load i32, i32* %9, align 4
  %29 = sext i32 %28 to i64
  %30 = getelementptr inbounds [100 x i32], [100 x i32]* %27, i64 0, i64 %29
  %31 = call i32 (i8*, ...) @__isoc99_scanf(i8* getelementptr inbounds ([3 x i8], [3 x i8]* @.str.1, i64 0, i64 0), i32* %30)
  br label %32

32:                                               ; preds = %24
  %33 = load i32, i32* %9, align 4
  %34 = add nsw i32 %33, 1
  store i32 %34, i32* %9, align 4
  br label %20

35:                                               ; preds = %20
  br label %36

36:                                               ; preds = %35
  %37 = load i32, i32* %8, align 4
  %38 = add nsw i32 %37, 1
  store i32 %38, i32* %8, align 4
  br label %15

39:                                               ; preds = %15
  %40 = call i32 (i8*, ...) @__isoc99_scanf(i8* getelementptr inbounds ([6 x i8], [6 x i8]* @.str, i64 0, i64 0), i32* %6, i32* %7)
  store i32 0, i32* %8, align 4
  br label %41

41:                                               ; preds = %62, %39
  %42 = load i32, i32* %8, align 4
  %43 = load i32, i32* %6, align 4
  %44 = icmp slt i32 %42, %43
  br i1 %44, label %45, label %65

45:                                               ; preds = %41
  store i32 0, i32* %9, align 4
  br label %46

46:                                               ; preds = %58, %45
  %47 = load i32, i32* %9, align 4
  %48 = load i32, i32* %7, align 4
  %49 = icmp slt i32 %47, %48
  br i1 %49, label %50, label %61

50:                                               ; preds = %46
  %51 = load i32, i32* %8, align 4
  %52 = sext i32 %51 to i64
  %53 = getelementptr inbounds [100 x [100 x i32]], [100 x [100 x i32]]* %3, i64 0, i64 %52
  %54 = load i32, i32* %9, align 4
  %55 = sext i32 %54 to i64
  %56 = getelementptr inbounds [100 x i32], [100 x i32]* %53, i64 0, i64 %55
  %57 = call i32 (i8*, ...) @__isoc99_scanf(i8* getelementptr inbounds ([3 x i8], [3 x i8]* @.str.1, i64 0, i64 0), i32* %56)
  br label %58

58:                                               ; preds = %50
  %59 = load i32, i32* %9, align 4
  %60 = add nsw i32 %59, 1
  store i32 %60, i32* %9, align 4
  br label %46

61:                                               ; preds = %46
  br label %62

62:                                               ; preds = %61
  %63 = load i32, i32* %8, align 4
  %64 = add nsw i32 %63, 1
  store i32 %64, i32* %8, align 4
  br label %41

65:                                               ; preds = %41
  %66 = load i32, i32* %4, align 4
  %67 = zext i32 %66 to i64
  %68 = load i32, i32* %7, align 4
  %69 = zext i32 %68 to i64
  %70 = call i8* @llvm.stacksave()
  store i8* %70, i8** %11, align 8
  %71 = mul nuw i64 %67, %69
  %72 = alloca i32, i64 %71, align 16
  store i64 %67, i64* %12, align 8
  store i64 %69, i64* %13, align 8
  store i32 0, i32* %8, align 4
  br label %73

73:                                               ; preds = %94, %65
  %74 = load i32, i32* %8, align 4
  %75 = load i32, i32* %4, align 4
  %76 = icmp slt i32 %74, %75
  br i1 %76, label %77, label %97

77:                                               ; preds = %73
  store i32 0, i32* %9, align 4
  br label %78

78:                                               ; preds = %90, %77
  %79 = load i32, i32* %9, align 4
  %80 = load i32, i32* %7, align 4
  %81 = icmp slt i32 %79, %80
  br i1 %81, label %82, label %93

82:                                               ; preds = %78
  %83 = load i32, i32* %8, align 4
  %84 = sext i32 %83 to i64
  %85 = mul nsw i64 %84, %69
  %86 = getelementptr inbounds i32, i32* %72, i64 %85
  %87 = load i32, i32* %9, align 4
  %88 = sext i32 %87 to i64
  %89 = getelementptr inbounds i32, i32* %86, i64 %88
  store i32 0, i32* %89, align 4
  br label %90

90:                                               ; preds = %82
  %91 = load i32, i32* %9, align 4
  %92 = add nsw i32 %91, 1
  store i32 %92, i32* %9, align 4
  br label %78

93:                                               ; preds = %78
  br label %94

94:                                               ; preds = %93
  %95 = load i32, i32* %8, align 4
  %96 = add nsw i32 %95, 1
  store i32 %96, i32* %8, align 4
  br label %73

97:                                               ; preds = %73
  store i32 0, i32* %8, align 4
  br label %98

98:                                               ; preds = %145, %97
  %99 = load i32, i32* %8, align 4
  %100 = load i32, i32* %4, align 4
  %101 = icmp slt i32 %99, %100
  br i1 %101, label %102, label %148

102:                                              ; preds = %98
  store i32 0, i32* %9, align 4
  br label %103

103:                                              ; preds = %141, %102
  %104 = load i32, i32* %9, align 4
  %105 = load i32, i32* %7, align 4
  %106 = icmp slt i32 %104, %105
  br i1 %106, label %107, label %144

107:                                              ; preds = %103
  store i32 0, i32* %10, align 4
  br label %108

108:                                              ; preds = %137, %107
  %109 = load i32, i32* %10, align 4
  %110 = load i32, i32* %6, align 4
  %111 = icmp slt i32 %109, %110
  br i1 %111, label %112, label %140

112:                                              ; preds = %108
  %113 = load i32, i32* %8, align 4
  %114 = sext i32 %113 to i64
  %115 = getelementptr inbounds [100 x [100 x i32]], [100 x [100 x i32]]* %2, i64 0, i64 %114
  %116 = load i32, i32* %10, align 4
  %117 = sext i32 %116 to i64
  %118 = getelementptr inbounds [100 x i32], [100 x i32]* %115, i64 0, i64 %117
  %119 = load i32, i32* %118, align 4
  %120 = load i32, i32* %10, align 4
  %121 = sext i32 %120 to i64
  %122 = getelementptr inbounds [100 x [100 x i32]], [100 x [100 x i32]]* %3, i64 0, i64 %121
  %123 = load i32, i32* %9, align 4
  %124 = sext i32 %123 to i64
  %125 = getelementptr inbounds [100 x i32], [100 x i32]* %122, i64 0, i64 %124
  %126 = load i32, i32* %125, align 4
  %127 = mul nsw i32 %119, %126
  %128 = load i32, i32* %8, align 4
  %129 = sext i32 %128 to i64
  %130 = mul nsw i64 %129, %69
  %131 = getelementptr inbounds i32, i32* %72, i64 %130
  %132 = load i32, i32* %9, align 4
  %133 = sext i32 %132 to i64
  %134 = getelementptr inbounds i32, i32* %131, i64 %133
  %135 = load i32, i32* %134, align 4
  %136 = add nsw i32 %135, %127
  store i32 %136, i32* %134, align 4
  br label %137

137:                                              ; preds = %112
  %138 = load i32, i32* %10, align 4
  %139 = add nsw i32 %138, 1
  store i32 %139, i32* %10, align 4
  br label %108

140:                                              ; preds = %108
  br label %141

141:                                              ; preds = %140
  %142 = load i32, i32* %9, align 4
  %143 = add nsw i32 %142, 1
  store i32 %143, i32* %9, align 4
  br label %103

144:                                              ; preds = %103
  br label %145

145:                                              ; preds = %144
  %146 = load i32, i32* %8, align 4
  %147 = add nsw i32 %146, 1
  store i32 %147, i32* %8, align 4
  br label %98

148:                                              ; preds = %98
  store i32 0, i32* %10, align 4
  store i32 0, i32* %8, align 4
  br label %149

149:                                              ; preds = %188, %148
  %150 = load i32, i32* %8, align 4
  %151 = load i32, i32* %4, align 4
  %152 = icmp slt i32 %150, %151
  br i1 %152, label %153, label %191

153:                                              ; preds = %149
  store i32 0, i32* %9, align 4
  br label %154

154:                                              ; preds = %184, %153
  %155 = load i32, i32* %9, align 4
  %156 = load i32, i32* %7, align 4
  %157 = icmp slt i32 %155, %156
  br i1 %157, label %158, label %187

158:                                              ; preds = %154
  %159 = load i32, i32* %8, align 4
  %160 = sext i32 %159 to i64
  %161 = mul nsw i64 %160, %69
  %162 = getelementptr inbounds i32, i32* %72, i64 %161
  %163 = load i32, i32* %9, align 4
  %164 = sext i32 %163 to i64
  %165 = getelementptr inbounds i32, i32* %162, i64 %164
  %166 = load i32, i32* %165, align 4
  %167 = call i32 (i8*, ...) @printf(i8* getelementptr inbounds ([3 x i8], [3 x i8]* @.str.1, i64 0, i64 0), i32 %166)
  %168 = load i32, i32* %10, align 4
  %169 = add nsw i32 %168, 1
  store i32 %169, i32* %10, align 4
  %170 = load i32, i32* %10, align 4
  %171 = load i32, i32* %7, align 4
  %172 = srem i32 %170, %171
  %173 = icmp ne i32 %172, 0
  br i1 %173, label %174, label %176

174:                                              ; preds = %158
  %175 = call i32 (i8*, ...) @printf(i8* getelementptr inbounds ([2 x i8], [2 x i8]* @.str.2, i64 0, i64 0))
  br label %176

176:                                              ; preds = %174, %158
  %177 = load i32, i32* %10, align 4
  %178 = load i32, i32* %7, align 4
  %179 = srem i32 %177, %178
  %180 = icmp eq i32 %179, 0
  br i1 %180, label %181, label %183

181:                                              ; preds = %176
  %182 = call i32 (i8*, ...) @printf(i8* getelementptr inbounds ([2 x i8], [2 x i8]* @.str.3, i64 0, i64 0))
  br label %183

183:                                              ; preds = %181, %176
  br label %184

184:                                              ; preds = %183
  %185 = load i32, i32* %9, align 4
  %186 = add nsw i32 %185, 1
  store i32 %186, i32* %9, align 4
  br label %154

187:                                              ; preds = %154
  br label %188

188:                                              ; preds = %187
  %189 = load i32, i32* %8, align 4
  %190 = add nsw i32 %189, 1
  store i32 %190, i32* %8, align 4
  br label %149

191:                                              ; preds = %149
  %192 = call i32 @getchar()
  %193 = call i32 @getchar()
  %194 = call i32 @getchar()
  %195 = call i32 @getchar()
  %196 = call i32 @getchar()
  %197 = call i32 @getchar()
  %198 = call i32 @getchar()
  %199 = load i8*, i8** %11, align 8
  call void @llvm.stackrestore(i8* %199)
  %200 = load i32, i32* %1, align 4
  ret i32 %200
}